target datalayout = "e-m:e-p270:32:32-p271:32:32-p272:64:64-i64:64-i128:128-f80:128-n8:16:32:64-S128"
target triple = "x86_64-pc-linux-gnu"

%"class.icu_77::UObject" = type { ptr }
%"class.icu_77::UnicodeString" = type { %"class.icu_77::Replaceable", %"union.icu_77::UnicodeString::StackBufferOrFields" }
%"class.icu_77::Replaceable" = type { %"class.icu_77::UObject" }
%"union.icu_77::UnicodeString::StackBufferOrFields" = type { %struct.anon.0, [32 x i8] }
%struct.anon.0 = type { i16, i32, i32, ptr }

; Function Attrs: mustprogress uwtable
define void @_ZNK6icu_7714Transliterator13transliterateERNS_11ReplaceableER14UTransPositioniR10UErrorCode(ptr noundef nonnull align 8 dereferenceable(84) %0, ptr noundef nonnull align 8 dereferenceable(8) %1, ptr noundef nonnull align 4 dereferenceable(16) %2, i32 noundef %3, ptr noundef nonnull align 4 dereferenceable(4) %4) unnamed_addr #1 align 2 personality ptr @__gxx_personality_v0 {
  %6 = alloca ptr, align 8
  %7 = alloca ptr, align 8
  %8 = alloca ptr, align 8
  %9 = alloca i32, align 4
  %10 = alloca ptr, align 8
  %11 = alloca %"class.icu_77::UnicodeString", align 8
  %12 = alloca ptr, align 8
  %13 = alloca i32, align 4
  store ptr %0, ptr %6, align 8, !tbaa !23
  store ptr %1, ptr %7, align 8, !tbaa !42
  store ptr %2, ptr %8, align 8, !tbaa !49
  store i32 %3, ptr %9, align 4, !tbaa !14
  store ptr %4, ptr %10, align 8, !tbaa !22
  %14 = load ptr, ptr %6, align 8
  call void @llvm.lifetime.start.p0(i64 64, ptr %11) #15
  %15 = load i32, ptr %9, align 4, !tbaa !14
  call void @_ZN6icu_7713UnicodeStringC1Ei(ptr noundef nonnull align 8 dereferenceable(64) %11, i32 noundef %15)
  %16 = load ptr, ptr %7, align 8, !tbaa !42
  %17 = load ptr, ptr %8, align 8, !tbaa !49
  %18 = load ptr, ptr %10, align 8, !tbaa !22
  invoke void @_ZNK6icu_7714Transliterator14_transliterateERNS_11ReplaceableER14UTransPositionPKNS_13UnicodeStringER10UErrorCode(ptr noundef nonnull align 8 dereferenceable(84) %14, ptr noundef nonnull align 8 dereferenceable(8) %16, ptr noundef nonnull align 4 dereferenceable(16) %17, ptr noundef %11, ptr noundef nonnull align 4 dereferenceable(4) %18)
          to label %19 unwind label %20

19:                                               ; preds = %5
  call void @_ZN6icu_7713UnicodeStringD1Ev(ptr noundef nonnull align 8 dereferenceable(64) %11) #15
  call void @llvm.lifetime.end.p0(i64 64, ptr %11) #15
  ret void

20:                                               ; preds = %5
  %21 = landingpad { ptr, i32 }
          cleanup
  %22 = extractvalue { ptr, i32 } %21, 0
  store ptr %22, ptr %12, align 8
  %23 = extractvalue { ptr, i32 } %21, 1
  store i32 %23, ptr %13, align 4
  call void @_ZN6icu_7713UnicodeStringD1Ev(ptr noundef nonnull align 8 dereferenceable(64) %11) #15
  call void @llvm.lifetime.end.p0(i64 64, ptr %11) #15
  br label %24

24:                                               ; preds = %20
  %25 = load ptr, ptr %12, align 8
  %26 = load i32, ptr %13, align 4
  %27 = insertvalue { ptr, i32 } poison, ptr %25, 0
  %28 = insertvalue { ptr, i32 } %27, i32 %26, 1
  resume { ptr, i32 } %28
}