; Function Attrs: mustprogress uwtable
define void @_ZNK6icu_7714Transliterator13transliterateERNS_11ReplaceableER14UTransPositioniR10UErrorCode(ptr noundef nonnull align 8 dereferenceable(84) %0, ptr noundef nonnull align 8 dereferenceable(8) %1, ptr noundef nonnull align 4 dereferenceable(16) %2, i32 noundef %3, ptr noundef nonnull align 4 captures(none) dereferenceable(4) %4) unnamed_addr #1 align 2 personality ptr @__gxx_personality_v0 {
  %6 = alloca %"class.icu_77::UnicodeString", align 8
  call void @llvm.lifetime.start.p0(i64 64, ptr nonnull %6) #21
  call void @_ZN6icu_7713UnicodeStringC1Ei(ptr noundef nonnull align 8 dereferenceable(64) %6, i32 noundef %3)
  invoke void @_ZNK6icu_7714Transliterator14_transliterateERNS_11ReplaceableER14UTransPositionPKNS_13UnicodeStringER10UErrorCode(ptr noundef nonnull align 8 dereferenceable(84) %0, ptr noundef nonnull align 8 dereferenceable(8) %1, ptr noundef nonnull align 4 dereferenceable(16) %2, ptr noundef nonnull %6, ptr noundef nonnull align 4 dereferenceable(4) %4)
          to label %7 unwind label %8

7:                                                ; preds = %5
  call void @_ZN6icu_7713UnicodeStringD1Ev(ptr noundef nonnull align 8 dereferenceable(64) %6) #21
  call void @llvm.lifetime.end.p0(i64 64, ptr nonnull %6) #21
  ret void

8:                                                ; preds = %5
  %9 = landingpad { ptr, i32 }
          cleanup
  call void @_ZN6icu_7713UnicodeStringD1Ev(ptr noundef nonnull align 8 dereferenceable(64) %6) #21
  call void @llvm.lifetime.end.p0(i64 64, ptr nonnull %6) #21
  resume { ptr, i32 } %9
}